; Function Attrs: mustprogress uwtable
define void @_ZN7rocksdb18BlockCreateContext6CreateEPSt10unique_ptrINS_20Block_kRangeDeletionESt14default_deleteIS2_EEONS_13BlockContentsE(ptr noundef nonnull readonly align 8 captures(none) dereferenceable(48) %0, ptr noundef captures(none) %1, ptr noundef nonnull align 8 dereferenceable(32) %2) local_unnamed_addr #3 align 2 personality ptr @__gxx_personality_v0 {
  %4 = tail call noalias noundef nonnull dereferenceable(88) ptr @_Znwm(i64 noundef 88) #18
  %5 = getelementptr inbounds nuw i8, ptr %0, i64 16
  %6 = load ptr, ptr %5, align 8, !tbaa !57
  invoke void @_ZN7rocksdb5BlockC2EONS_13BlockContentsEmPNS_10StatisticsE(ptr noundef nonnull align 8 dereferenceable(84) %4, ptr noundef nonnull align 8 dereferenceable(32) %2, i64 noundef 0, ptr noundef %6)
          to label %_ZN7rocksdb20Block_kRangeDeletionCI2NS_5BlockEEONS_13BlockContentsEmPNS_10StatisticsE.exit unwind label %8

_ZN7rocksdb20Block_kRangeDeletionCI2NS_5BlockEEONS_13BlockContentsEmPNS_10StatisticsE.exit: ; preds = %3
  %7 = load ptr, ptr %1, align 8, !tbaa !70
  store ptr %4, ptr %1, align 8, !tbaa !70
  %.not.i.i = icmp eq ptr %7, null
  br i1 %.not.i.i, label %_ZNSt10unique_ptrIN7rocksdb20Block_kRangeDeletionESt14default_deleteIS1_EE5resetEPS1_.exit, label %_ZNKSt14default_deleteIN7rocksdb20Block_kRangeDeletionEEclEPS1_.exit.i.i

_ZNKSt14default_deleteIN7rocksdb20Block_kRangeDeletionEEclEPS1_.exit.i.i: ; preds = %_ZN7rocksdb20Block_kRangeDeletionCI2NS_5BlockEEONS_13BlockContentsEmPNS_10StatisticsE.exit
  tail call void @_ZN7rocksdb5BlockD2Ev(ptr noundef nonnull align 8 dereferenceable(84) %7) #19
  tail call void @_ZdlPvm(ptr noundef nonnull %7, i64 noundef 88) #17
  br label %_ZNSt10unique_ptrIN7rocksdb20Block_kRangeDeletionESt14default_deleteIS1_EE5resetEPS1_.exit

_ZNSt10unique_ptrIN7rocksdb20Block_kRangeDeletionESt14default_deleteIS1_EE5resetEPS1_.exit: ; preds = %_ZN7rocksdb20Block_kRangeDeletionCI2NS_5BlockEEONS_13BlockContentsEmPNS_10StatisticsE.exit, %_ZNKSt14default_deleteIN7rocksdb20Block_kRangeDeletionEEclEPS1_.exit.i.i
  ret void

8:                                                ; preds = %3
  %9 = landingpad { ptr, i32 }
          cleanup
  tail call void @_ZdlPvm(ptr noundef nonnull %4, i64 noundef 88) #17
  resume { ptr, i32 } %9
}